; Function Attrs: mustprogress uwtable
define hidden noundef i32 @_ZN7datalog12rule_counter16get_max_rule_varERKNS_4ruleE(ptr noundef nonnull align 8 dereferenceable(224) %this, ptr nocapture noundef nonnull readonly align 8 dereferenceable(80) %r) local_unnamed_addr #3 align 2 {
entry:
  %has_var = alloca i8, align 1
  %m_todo = getelementptr inbounds i8, ptr %this, i64 208
  %m_head.i = getelementptr inbounds i8, ptr %r, i64 40
  %0 = load ptr, ptr %m_head.i, align 8
  %1 = load ptr, ptr %m_todo, align 8
  %cmp.i = icmp eq ptr %1, null
  br i1 %cmp.i, label %if.then.i, label %lor.lhs.false.i

lor.lhs.false.i:                                  ; preds = %entry
  %arrayidx.i = getelementptr inbounds i8, ptr %1, i64 -4
  %2 = load i32, ptr %arrayidx.i, align 4
  %arrayidx4.i = getelementptr inbounds i8, ptr %1, i64 -8
  %3 = load i32, ptr %arrayidx4.i, align 4
  %cmp5.i = icmp eq i32 %2, %3
  br i1 %cmp5.i, label %if.then.i, label %_ZN6vectorIP4exprLb0EjE9push_backEOS1_.exit

if.then.i:                                        ; preds = %lor.lhs.false.i, %entry
  tail call void @_ZN6vectorIP4exprLb0EjE13expand_vectorEv(ptr noundef nonnull align 8 dereferenceable(8) %m_todo)
  %.pre.i = load ptr, ptr %m_todo, align 8
  %arrayidx8.phi.trans.insert.i = getelementptr inbounds i8, ptr %.pre.i, i64 -4
  %.pre1.i = load i32, ptr %arrayidx8.phi.trans.insert.i, align 4
  br label %_ZN6vectorIP4exprLb0EjE9push_backEOS1_.exit

_ZN6vectorIP4exprLb0EjE9push_backEOS1_.exit:      ; preds = %lor.lhs.false.i, %if.then.i
  %4 = phi i32 [ %.pre1.i, %if.then.i ], [ %2, %lor.lhs.false.i ]
  %5 = phi ptr [ %.pre.i, %if.then.i ], [ %1, %lor.lhs.false.i ]
  %idx.ext.i = zext i32 %4 to i64
  %add.ptr.i = getelementptr inbounds ptr, ptr %5, i64 %idx.ext.i
  store ptr %0, ptr %add.ptr.i, align 8
  %6 = load ptr, ptr %m_todo, align 8
  %arrayidx10.i = getelementptr inbounds i8, ptr %6, i64 -4
  %7 = load i32, ptr %arrayidx10.i, align 4
  %inc.i = add i32 %7, 1
  store i32 %inc.i, ptr %arrayidx10.i, align 4
  %m_scopes = getelementptr inbounds i8, ptr %this, i64 216
  %8 = load ptr, ptr %m_scopes, align 8
  %cmp.i5 = icmp eq ptr %8, null
  br i1 %cmp.i5, label %if.then.i14, label %lor.lhs.false.i6

lor.lhs.false.i6:                                 ; preds = %_ZN6vectorIP4exprLb0EjE9push_backEOS1_.exit
  %arrayidx.i7 = getelementptr inbounds i8, ptr %8, i64 -4
  %9 = load i32, ptr %arrayidx.i7, align 4
  %arrayidx4.i8 = getelementptr inbounds i8, ptr %8, i64 -8
  %10 = load i32, ptr %arrayidx4.i8, align 4
  %cmp5.i9 = icmp eq i32 %9, %10
  br i1 %cmp5.i9, label %if.then.i14, label %_ZN6vectorIjLb0EjE9push_backEOj.exit

if.then.i14:                                      ; preds = %lor.lhs.false.i6, %_ZN6vectorIP4exprLb0EjE9push_backEOS1_.exit
  tail call void @_ZN6vectorIjLb0EjE13expand_vectorEv(ptr noundef nonnull align 8 dereferenceable(8) %m_scopes)
  %.pre.i15 = load ptr, ptr %m_scopes, align 8
  %arrayidx8.phi.trans.insert.i16 = getelementptr inbounds i8, ptr %.pre.i15, i64 -4
  %.pre1.i17 = load i32, ptr %arrayidx8.phi.trans.insert.i16, align 4
  br label %_ZN6vectorIjLb0EjE9push_backEOj.exit

_ZN6vectorIjLb0EjE9push_backEOj.exit:             ; preds = %lor.lhs.false.i6, %if.then.i14
  %11 = phi i32 [ %.pre1.i17, %if.then.i14 ], [ %9, %lor.lhs.false.i6 ]
  %12 = phi ptr [ %.pre.i15, %if.then.i14 ], [ %8, %lor.lhs.false.i6 ]
  %idx.ext.i10 = zext i32 %11 to i64
  %add.ptr.i11 = getelementptr inbounds i32, ptr %12, i64 %idx.ext.i10
  store i32 0, ptr %add.ptr.i11, align 4
  %13 = load ptr, ptr %m_scopes, align 8
  %arrayidx10.i12 = getelementptr inbounds i8, ptr %13, i64 -4
  %14 = load i32, ptr %arrayidx10.i12, align 4
  %inc.i13 = add i32 %14, 1
  store i32 %inc.i13, ptr %arrayidx10.i12, align 4
  %m_tail_size.i = getelementptr inbounds i8, ptr %r, i64 56
  %15 = load i32, ptr %m_tail_size.i, align 8
  store i8 0, ptr %has_var, align 1
  %cmp47.not = icmp eq i32 %15, 0
  br i1 %cmp47.not, label %for.end, label %for.body.lr.ph

for.body.lr.ph:                                   ; preds = %_ZN6vectorIjLb0EjE9push_backEOj.exit
  %m_tail.i = getelementptr inbounds i8, ptr %r, i64 80
  %wide.trip.count = zext i32 %15 to i64
  br label %for.body

for.body:                                         ; preds = %for.body.lr.ph, %_ZN6vectorIjLb0EjE9push_backEOj.exit46
  %indvars.iv = phi i64 [ 0, %for.body.lr.ph ], [ %indvars.iv.next, %_ZN6vectorIjLb0EjE9push_backEOj.exit46 ]
  %arrayidx.i18 = getelementptr inbounds [0 x ptr], ptr %m_tail.i, i64 0, i64 %indvars.iv
  %16 = load ptr, ptr %arrayidx.i18, align 8
  %17 = ptrtoint ptr %16 to i64
  %and.i = and i64 %17, -8
  %18 = inttoptr i64 %and.i to ptr
  %19 = load ptr, ptr %m_todo, align 8
  %cmp.i19 = icmp eq ptr %19, null
  br i1 %cmp.i19, label %if.then.i28, label %lor.lhs.false.i20

lor.lhs.false.i20:                                ; preds = %for.body
  %arrayidx.i21 = getelementptr inbounds i8, ptr %19, i64 -4
  %20 = load i32, ptr %arrayidx.i21, align 4
  %arrayidx4.i22 = getelementptr inbounds i8, ptr %19, i64 -8
  %21 = load i32, ptr %arrayidx4.i22, align 4
  %cmp5.i23 = icmp eq i32 %20, %21
  br i1 %cmp5.i23, label %if.then.i28, label %_ZN6vectorIP4exprLb0EjE9push_backEOS1_.exit32

if.then.i28:                                      ; preds = %lor.lhs.false.i20, %for.body
  tail call void @_ZN6vectorIP4exprLb0EjE13expand_vectorEv(ptr noundef nonnull align 8 dereferenceable(8) %m_todo)
  %.pre.i29 = load ptr, ptr %m_todo, align 8
  %arrayidx8.phi.trans.insert.i30 = getelementptr inbounds i8, ptr %.pre.i29, i64 -4
  %.pre1.i31 = load i32, ptr %arrayidx8.phi.trans.insert.i30, align 4
  br label %_ZN6vectorIP4exprLb0EjE9push_backEOS1_.exit32

_ZN6vectorIP4exprLb0EjE9push_backEOS1_.exit32:    ; preds = %lor.lhs.false.i20, %if.then.i28
  %22 = phi i32 [ %.pre1.i31, %if.then.i28 ], [ %20, %lor.lhs.false.i20 ]
  %23 = phi ptr [ %.pre.i29, %if.then.i28 ], [ %19, %lor.lhs.false.i20 ]
  %idx.ext.i24 = zext i32 %22 to i64
  %add.ptr.i25 = getelementptr inbounds ptr, ptr %23, i64 %idx.ext.i24
  store ptr %18, ptr %add.ptr.i25, align 8
  %24 = load ptr, ptr %m_todo, align 8
  %arrayidx10.i26 = getelementptr inbounds i8, ptr %24, i64 -4
  %25 = load i32, ptr %arrayidx10.i26, align 4
  %inc.i27 = add i32 %25, 1
  store i32 %inc.i27, ptr %arrayidx10.i26, align 4
  %26 = load ptr, ptr %m_scopes, align 8
  %cmp.i33 = icmp eq ptr %26, null
  br i1 %cmp.i33, label %if.then.i42, label %lor.lhs.false.i34

lor.lhs.false.i34:                                ; preds = %_ZN6vectorIP4exprLb0EjE9push_backEOS1_.exit32
  %arrayidx.i35 = getelementptr inbounds i8, ptr %26, i64 -4
  %27 = load i32, ptr %arrayidx.i35, align 4
  %arrayidx4.i36 = getelementptr inbounds i8, ptr %26, i64 -8
  %28 = load i32, ptr %arrayidx4.i36, align 4
  %cmp5.i37 = icmp eq i32 %27, %28
  br i1 %cmp5.i37, label %if.then.i42, label %_ZN6vectorIjLb0EjE9push_backEOj.exit46

if.then.i42:                                      ; preds = %lor.lhs.false.i34, %_ZN6vectorIP4exprLb0EjE9push_backEOS1_.exit32
  tail call void @_ZN6vectorIjLb0EjE13expand_vectorEv(ptr noundef nonnull align 8 dereferenceable(8) %m_scopes)
  %.pre.i43 = load ptr, ptr %m_scopes, align 8
  %arrayidx8.phi.trans.insert.i44 = getelementptr inbounds i8, ptr %.pre.i43, i64 -4
  %.pre1.i45 = load i32, ptr %arrayidx8.phi.trans.insert.i44, align 4
  br label %_ZN6vectorIjLb0EjE9push_backEOj.exit46

_ZN6vectorIjLb0EjE9push_backEOj.exit46:           ; preds = %lor.lhs.false.i34, %if.then.i42
  %29 = phi i32 [ %.pre1.i45, %if.then.i42 ], [ %27, %lor.lhs.false.i34 ]
  %30 = phi ptr [ %.pre.i43, %if.then.i42 ], [ %26, %lor.lhs.false.i34 ]
  %idx.ext.i38 = zext i32 %29 to i64
  %add.ptr.i39 = getelementptr inbounds i32, ptr %30, i64 %idx.ext.i38
  store i32 0, ptr %add.ptr.i39, align 4
  %31 = load ptr, ptr %m_scopes, align 8
  %arrayidx10.i40 = getelementptr inbounds i8, ptr %31, i64 -4
  %32 = load i32, ptr %arrayidx10.i40, align 4
  %inc.i41 = add i32 %32, 1
  store i32 %inc.i41, ptr %arrayidx10.i40, align 4
  %indvars.iv.next = add nuw nsw i64 %indvars.iv, 1
  %exitcond.not = icmp eq i64 %indvars.iv.next, %wide.trip.count
  br i1 %exitcond.not, label %for.end, label %for.body, !llvm.loop !24

for.end:                                          ; preds = %_ZN6vectorIjLb0EjE9push_backEOj.exit46, %_ZN6vectorIjLb0EjE9push_backEOj.exit
  %call13 = call noundef i32 @_ZN11var_counter11get_max_varERb(ptr noundef nonnull align 8 dereferenceable(224) %this, ptr noundef nonnull align 1 dereferenceable(1) %has_var)
  ret i32 %call13
}